target datalayout = "e-m:e-p270:32:32-p271:32:32-p272:64:64-i64:64-i128:128-f80:128-n8:16:32:64-S128"
target triple = "x86_64-pc-linux-gnu"

%struct.HTAB = type { ptr, ptr, ptr, ptr, ptr, ptr, ptr, ptr, i8, i8, i8, i64, i64, i32 }

@.str.2 = private unnamed_addr constant [11 x i8] c"dynahash.c\00", align 1
@.str.10 = private unnamed_addr constant [36 x i8] c"cannot freeze shared hashtable \22%s\22\00", align 1
@__func__.hash_freeze = private unnamed_addr constant [12 x i8] c"hash_freeze\00", align 1
@.str.11 = private unnamed_addr constant [57 x i8] c"cannot freeze hashtable \22%s\22 because it has active scans\00", align 1
@num_seq_scans = internal global i32 0, align 4
@seq_scan_tables = internal global [100 x ptr] zeroinitializer, align 16

; Function Attrs: nounwind uwtable
define internal zeroext i1 @has_seq_scans(ptr noundef %0) #0 {
  %2 = alloca i1, align 1
  %3 = alloca ptr, align 8
  %4 = alloca i32, align 4
  %5 = alloca i32, align 4
  store ptr %0, ptr %3, align 8
  call void @llvm.lifetime.start.p0(i64 4, ptr %4) #11
  store i32 0, ptr %4, align 4
  br label %6

6:                                                ; preds = %19, %1
  %7 = load i32, ptr %4, align 4
  %8 = load i32, ptr @num_seq_scans, align 4
  %9 = icmp slt i32 %7, %8
  br i1 %9, label %10, label %22

10:                                               ; preds = %6
  %11 = load i32, ptr %4, align 4
  %12 = sext i32 %11 to i64
  %13 = getelementptr inbounds [100 x ptr], ptr @seq_scan_tables, i64 0, i64 %12
  %14 = load ptr, ptr %13, align 8
  %15 = load ptr, ptr %3, align 8
  %16 = icmp eq ptr %14, %15
  br i1 %16, label %17, label %18

17:                                               ; preds = %10
  store i1 true, ptr %2, align 1
  store i32 1, ptr %5, align 4
  br label %23

18:                                               ; preds = %10
  br label %19

19:                                               ; preds = %18
  %20 = load i32, ptr %4, align 4
  %21 = add i32 %20, 1
  store i32 %21, ptr %4, align 4
  br label %6, !llvm.loop !21

22:                                               ; preds = %6
  store i1 false, ptr %2, align 1
  store i32 1, ptr %5, align 4
  br label %23

23:                                               ; preds = %22, %17
  call void @llvm.lifetime.end.p0(i64 4, ptr %4) #11
  %24 = load i1, ptr %2, align 1
  ret i1 %24
}

; Function Attrs: nounwind uwtable
define dso_local void @hash_freeze(ptr noundef %0) #0 {
  %2 = alloca ptr, align 8
  store ptr %0, ptr %2, align 8
  %3 = load ptr, ptr %2, align 8
  %4 = getelementptr inbounds nuw %struct.HTAB, ptr %3, i32 0, i32 8
  %5 = load i8, ptr %4, align 8, !range !12, !noundef !13
  %6 = trunc i8 %5 to i1
  br i1 %6, label %7, label %20

7:                                                ; preds = %1
  br label %8

8:                                                ; preds = %7
  br i1 true, label %9, label %11

9:                                                ; preds = %8
  %10 = call zeroext i1 @errstart_cold(i32 noundef 21, ptr noundef null) #13
  br i1 %10, label %13, label %18

11:                                               ; preds = %8
  %12 = call zeroext i1 @errstart(i32 noundef 21, ptr noundef null)
  br i1 %12, label %13, label %18

13:                                               ; preds = %11, %9
  %14 = load ptr, ptr %2, align 8
  %15 = getelementptr inbounds nuw %struct.HTAB, ptr %14, i32 0, i32 7
  %16 = load ptr, ptr %15, align 8
  %17 = call i32 (ptr, ...) @errmsg_internal(ptr noundef @.str.10, ptr noundef %16)
  call void @errfinish(ptr noundef @.str.2, i32 noundef 1537, ptr noundef @__func__.hash_freeze)
  br label %18

18:                                               ; preds = %13, %11, %9
  unreachable

19:                                               ; No predecessors!
  br label %20

20:                                               ; preds = %19, %1
  %21 = load ptr, ptr %2, align 8
  %22 = getelementptr inbounds nuw %struct.HTAB, ptr %21, i32 0, i32 10
  %23 = load i8, ptr %22, align 2, !range !12, !noundef !13
  %24 = trunc i8 %23 to i1
  br i1 %24, label %41, label %25

25:                                               ; preds = %20
  %26 = load ptr, ptr %2, align 8
  %27 = call zeroext i1 @has_seq_scans(ptr noundef %26)
  br i1 %27, label %28, label %41

28:                                               ; preds = %25
  br label %29

29:                                               ; preds = %28
  br i1 true, label %30, label %32

30:                                               ; preds = %29
  %31 = call zeroext i1 @errstart_cold(i32 noundef 21, ptr noundef null) #13
  br i1 %31, label %34, label %39

32:                                               ; preds = %29
  %33 = call zeroext i1 @errstart(i32 noundef 21, ptr noundef null)
  br i1 %33, label %34, label %39

34:                                               ; preds = %32, %30
  %35 = load ptr, ptr %2, align 8
  %36 = getelementptr inbounds nuw %struct.HTAB, ptr %35, i32 0, i32 7
  %37 = load ptr, ptr %36, align 8
  %38 = call i32 (ptr, ...) @errmsg_internal(ptr noundef @.str.11, ptr noundef %37)
  call void @errfinish(ptr noundef @.str.2, i32 noundef 1540, ptr noundef @__func__.hash_freeze)
  br label %39

39:                                               ; preds = %34, %32, %30
  unreachable

40:                                               ; No predecessors!
  br label %41

41:                                               ; preds = %40, %25, %20
  %42 = load ptr, ptr %2, align 8
  %43 = getelementptr inbounds nuw %struct.HTAB, ptr %42, i32 0, i32 10
  store i8 1, ptr %43, align 2
  ret void
}