; Function Attrs: nounwind uwtable
define dso_local void @hash_freeze(ptr noundef captures(address) %0) local_unnamed_addr #0 {
  %2 = getelementptr inbounds nuw i8, ptr %0, i64 64
  %3 = load i8, ptr %2, align 8, !range !10, !noundef !11
  %4 = trunc nuw i8 %3 to i1
  br i1 %4, label %5, label %10

5:                                                ; preds = %1
  %6 = tail call zeroext i1 @errstart_cold(i32 noundef 21, ptr noundef null) #19
  tail call void @llvm.assume(i1 %6)
  %7 = getelementptr inbounds nuw i8, ptr %0, i64 56
  %8 = load ptr, ptr %7, align 8
  %9 = tail call i32 (ptr, ...) @errmsg_internal(ptr noundef nonnull @.str.10, ptr noundef %8) #17
  tail call void @errfinish(ptr noundef nonnull @.str.2, i32 noundef 1537, ptr noundef nonnull @__func__.hash_freeze) #17
  unreachable

10:                                               ; preds = %1
  %11 = getelementptr inbounds nuw i8, ptr %0, i64 66
  %12 = load i8, ptr %11, align 2, !range !10, !noundef !11
  %13 = trunc nuw i8 %12 to i1
  br i1 %13, label %has_seq_scans.exit.thread, label %14

14:                                               ; preds = %10
  %15 = load i32, ptr @num_seq_scans, align 4
  %16 = icmp sgt i32 %15, 0
  br i1 %16, label %.lr.ph.preheader.i, label %has_seq_scans.exit.thread

.lr.ph.preheader.i:                               ; preds = %14
  %wide.trip.count.i = zext nneg i32 %15 to i64
  br label %.lr.ph.i

17:                                               ; preds = %.lr.ph.i
  %indvars.iv.next.i = add nuw nsw i64 %indvars.iv.i, 1
  %exitcond.not.i = icmp eq i64 %indvars.iv.next.i, %wide.trip.count.i
  br i1 %exitcond.not.i, label %has_seq_scans.exit.thread, label %.lr.ph.i, !llvm.loop !18

.lr.ph.i:                                         ; preds = %17, %.lr.ph.preheader.i
  %indvars.iv.i = phi i64 [ 0, %.lr.ph.preheader.i ], [ %indvars.iv.next.i, %17 ]
  %18 = getelementptr inbounds nuw [100 x ptr], ptr @seq_scan_tables, i64 0, i64 %indvars.iv.i
  %19 = load ptr, ptr %18, align 8
  %20 = icmp eq ptr %19, %0
  br i1 %20, label %has_seq_scans.exit, label %17

has_seq_scans.exit:                               ; preds = %.lr.ph.i
  %21 = tail call zeroext i1 @errstart_cold(i32 noundef 21, ptr noundef null) #19
  tail call void @llvm.assume(i1 %21)
  %22 = getelementptr inbounds nuw i8, ptr %0, i64 56
  %23 = load ptr, ptr %22, align 8
  %24 = tail call i32 (ptr, ...) @errmsg_internal(ptr noundef nonnull @.str.11, ptr noundef %23) #17
  tail call void @errfinish(ptr noundef nonnull @.str.2, i32 noundef 1540, ptr noundef nonnull @__func__.hash_freeze) #17
  unreachable

has_seq_scans.exit.thread:                        ; preds = %17, %14, %10
  store i8 1, ptr %11, align 2
  ret void
}